(dp1
S'ipdst'
p2
S'127.129.92.19'
p3
sS'ipsrc'
p4
S'127.126.44.111'
p5
sS'flow_arrival_rate'
p6
I6
sS'ano_type'
p7
g6
sS'flow_size_var'
p8
I100
sS'TYPE'
p9
S'harpoon'
p10
sS'flow_size_mean'
p11
F400000
s.