((lp1
(F410692
F411469
tp2
a(I159
I530
tp3
a(F28090.000901550738
F512259.40465465502
tp4
a(I0
I1
tp5
a(lp6
(lp7
F127
aF117.14352686620988
aF85.164442841687702
aF124.07843490804183
aa(lp8
F127
aF129.54529529529529
aF127.52827827827828
aF59.883633633633636
aat.