((lp1
(F410689
F411520
tp2
a(I174
I541
tp3
a(F23144.187085202255
F513960.1219512191
tp4
a(I0
I1
tp5
a(lp6
(lp7
F127
aF117.06403587443947
aF84.13847533632287
aF123.01829596412556
aa(lp8
F127
aF129.52463414634147
aF126.17853658536585
aF58.749268292682927
aat.