(dp1
S'0.2'
p2
(dp3
S'entropy'
p4
(lp5
(F0.00077545633041234234
F0.0013361565150224776
tp6
a(F0.00083234315024834429
F0.0010300966339346818
tp7
a(F0.00040376332802236417
F0.00075912285659972462
tp8
a(F0.00039471673746871959
F0.0015045990517151223
tp9
a(F0.00010086582232745125
F0.0016821760285174472
tp10
a(F1.9932165874488907e-05
F0.00076226734339814408
tp11
a(F1.0428456598633295e-05
F0.0012485923539421837
tp12
a(F0.00021638616226324174
F0.0015342033028168008
tp13
a(F2.1969947398436549e-05
F0.0022826763351170335
tp14
a(F0.00024633570105301325
F0.0018822152270068209
tp15
a(F0.0001017240578290576
F0.0016238800802319665
tp16
a(F0.00070202377427929907
F0.0022240487300359537
tp17
a(F0.00021913308957485127
F0.0022117952781058256
tp18
a(F0.00015321167844134509
F0.0029864180537449553
tp19
a(F0.00015762935129003033
F0.0025880238477572022
tp20
a(F0.00055727714786275515
F0.0019780609862516756
tp21
a(F0.00081694872708750962
F0.0015694584674176631
tp22
a(F0.00035313434617717868
F0.0014639896619215212
tp23
a(F0.00057330614943880594
F0.001262708145217754
tp24
a(F0.00039943263168286045
F0.0011511906646092423
tp25
a(F0.00035554032377771785
F0.00060455815667667906
tp26
a(F0.00018986485662365535
F0.0013958015730479415
tp27
a(F0.00051851387863462942
F0.00082758490583489204
tp28
a(F0.0009177036519448763
F0.0013644209471356159
tp29
a(F0.0020050527562150301
F0.0033821525907637051
tp30
a(F0.0033209430025556309
F0.0041319086339713131
tp31
a(F0.002645096767878212
F0.0036583707482806551
tp32
a(F0.0022268574085017173
F0.0032581058177857483
tp33
a(F0.0033332950734916815
F0.0042689157849603023
tp34
a(F0.004699838714963666
F0.0049901650980405561
tp35
a(F0.0032820785828148145
F0.0037931822306341342
tp36
a(F0.0018544351478994615
F0.0028040815005986202
tp37
a(F0.0012898595658657561
F0.0019921714578298483
tp38
a(F0.0013817300001865724
F0.0024453984929183659
tp39
a(F0.0010604780751488959
F0.0023795320717033028
tp40
a(F0.0009143517596689613
F0.0018242191003808072
tp41
a(F0.0011189166190510645
F0.0019853114468774968
tp42
a(F0.00061624779567757536
F0.0018357230424140383
tp43
a(F0.0008122454552800442
F0.0018722598443183136
tp44
a(F0.00095507380001567943
F0.0024448301833136787
tp45
a(F0.0010160862966405752
F0.0021511002500027906
tp46
a(F0.00086299139230909712
F0.0014842363165147809
tp47
a(F0.00097463237383679617
F0.0027880603465392229
tp48
a(F0.0006825448877118374
F0.0011801015419306738
tp49
a(F0.00033527963224959812
F0.00071683014465005008
tp50
a(F9.3938348780479115e-05
F0.0010829686686215946
tp51
a(F1.6111039993446348e-05
F0.0004593416056919231
tp52
a(F1.2053104513856162e-05
F0.0009468934044797035
tp53
a(F2.5239791859008737e-05
F0.00095503027772140137
tp54
a(F8.3607674750926276e-06
F0.00090661882434252305
tp55
a(F3.1134606152750325e-05
F0.00057177146495593887
tp56
a(F0.0093990132359814335
F0.0070403699913706326
tp57
a(F0.021532024502249333
F0.016759374098455439
tp58
a(F0.027896449269046216
F0.023187386346913072
tp59
a(F0.039672406629182443
F0.033531722392636264
tp60
a(F0.047242701302673162
F0.041067571700949164
tp61
a(F0.04986768859638005
F0.042294778561290741
tp62
a(F0.059077223421681424
F0.050850285854278317
tp63
a(F0.063943627584781004
F0.053795587006842546
tp64
a(F0.066597199142762645
F0.054325722188948419
tp65
a(F0.073119054359825034
F0.062060478903402889
tp66
a(F0.071609437241229049
F0.064619759294116327
tp67
a(F0.061821152420870294
F0.057118663686449071
tp68
a(F0.058398685441090357
F0.052710682359613063
tp69
a(F0.047494842085239977
F0.043610601844007321
tp70
a(F0.04204109808356981
F0.03807628291485754
tp71
a(F0.037665791807583088
F0.034572440230669244
tp72
a(F0.02610451670685578
F0.023617798223334888
tp73
a(F0.016475511159408318
F0.014519377197070889
tp74
a(F0.0082200166339601102
F0.0079043667817737442
tp75
a(F0.0039417849632706753
F0.0050319228111425137
tp76
a(F0.0031242756739925347
F0.0039840522973833168
tp77
a(F0.0021675590230560201
F0.0027071098405594268
tp78
a(F0.0020540318601031393
F0.0025622297456368891
tp79
a(F0.0015295831708055652
F0.0020775736327301765
tp80
a(F0.0013756627149857283
F0.0026434559351480244
tp81
a(F0.0013343430412682648
F0.0038897711939560172
tp82
a(F0.00079226578495438481
F0.0018648864331984715
tp83
a(F0.00033728673518701804
F0.0012330186072287393
tp84
a(F0.00036696515324463608
F0.0010109061437988335
tp85
a(F0.00017952812239977931
F0.0011887269828062903
tp86
a(F0.00041435882468997048
F0.0012927440816885097
tp87
a(F0.00042084593273141141
F0.0017176279269736556
tp88
a(F0.00019515715382766117
F0.0013744206651255171
tp89
a(F0.00017491158151108476
F0.0014020840498169312
tp90
a(F0.00015756255876026026
F0.0014445019080564295
tp91
a(F0.00042839696547450519
F0.0018718879485556551
tp92
a(F0.00052450476135483363
F0.0024415953210133777
tp93
a(F0.0008588291758141655
F0.0018456160746909654
tp94
a(F0.0006141164138647754
F0.0024562524086274629
tp95
a(F0.0012875094256192404
F0.0030907659634683464
tp96
a(F0.0026066675095562097
F0.004564125101195032
tp97
a(F0.0036757255210672704
F0.0051720770299639304
tp98
a(F0.0026379287867043556
F0.003434476228010983
tp99
a(F0.0021773161545614698
F0.0038194056697889241
tp100
a(F0.0024520958986664516
F0.003811021608855234
tp101
a(F0.0020455891192887876
F0.0044965921450848476
tp102
a(F0.0015527007457809064
F0.0025657821544500547
tp103
a(F0.0013890057632886931
F0.0027563560833425856
tp104
a(F0.0024028321752068392
F0.0040913013470245127
tp105
a(F0.0014252743326990738
F0.0025362508615851959
tp106
a(F0.00094969292118736968
F0.0032185579798784374
tp107
a(F0.00036889268600994504
F0.0025300941954844091
tp108
a(F5.696977603872333e-05
F0.0027815980571057005
tp109
a(F6.7077981567925486e-05
F0.0043335136200278353
tp110
a(F0.00010994791994576149
F0.0021254689420183871
tp111
a(F0.00013412570101087578
F0.0013908912870009649
tp112
a(F0.00017394707644821129
F0.0018745746102104919
tp113
a(F0.00017708577545720756
F0.0015518621142361678
tp114
a(F0.00062927052376258899
F0.0028475544793762843
tp115
a(F0.00091889921959812521
F0.0032443576729596496
tp116
a(F0.0010506619880391206
F0.0033443432201319574
tp117
a(F0.00084489547938271454
F0.0027763433795982618
tp118
a(F0.0010738151649014437
F0.002662378337997073
tp119
a(F0.00094928590409849856
F0.0018480366499267794
tp120
a(F0.00041081541147417085
F0.0014655386851379019
tp121
a(F0.0008338464090297034
F0.0022409542464341282
tp122
a(F0.002073358982945285
F0.0033008546466397753
tp123
a(F0.0021346926518605105
F0.0033193528601666768
tp124
a(F0.0037984685911186013
F0.0050858811416800856
tp125
a(F0.0038465137564597449
F0.0056203930208719843
tp126
a(F0.0031089576951730327
F0.0057879721618343261
tp127
a(F0.0048069741987984103
F0.0066442232777695082
tp128
a(F0.0045553713733719539
F0.0074194085839212809
tp129
a(F0.0037255125238814836
F0.0069829168428366421
tp130
a(F0.0032152456814269793
F0.0066659410119613528
tp131
a(F0.0017194850584875791
F0.0043211322211604295
tp132
a(F0.00096997991334384602
F0.0041969651252674193
tp133
a(F0.00049365257067916606
F0.0025206678651624025
tp134
a(F0.00029464240225045291
F0.0033500335839537357
tp135
a(F0.00015053706250957137
F0.0024543206032053609
tp136
a(F0.0001298412252023701
F0.0025618073191814349
tp137
a(F3.9661935004576231e-05
F0.0010504819585755898
tp138
a(F9.1332863733809477e-05
F0.00068686894456333205
tp139
a(F4.2271459033445778e-05
F0.0008391410308400309
tp140
a(F0.00023153696647871397
F0.00073739722240686071
tp141
a(F0.00013405311182524988
F0.001322451462861839
tp142
a(F0.00049592391293297195
F0.001191664678242853
tp143
a(F0.00034365338011499956
F0.0017331580142345908
tp144
a(F0.00040260226885605824
F0.0009799465796971375
tp145
asS'winT'
p146
(lp147
I0
aI20
aI40
aI60
aI80
aI100
aI120
aI140
aI160
aI180
aI200
aI220
aI240
aI260
aI280
aI300
aI320
aI340
aI360
aI380
aI400
aI420
aI440
aI460
aI480
aI500
aI520
aI540
aI560
aI580
aI600
aI620
aI640
aI660
aI680
aI700
aI720
aI740
aI760
aI780
aI800
aI820
aI840
aI860
aI880
aI900
aI920
aI940
aI960
aI980
aI1000
aI1020
aI1040
aI1060
aI1080
aI1100
aI1120
aI1140
aI1160
aI1180
aI1200
aI1220
aI1240
aI1260
aI1280
aI1300
aI1320
aI1340
aI1360
aI1380
aI1400
aI1420
aI1440
aI1460
aI1480
aI1500
aI1520
aI1540
aI1560
aI1580
aI1600
aI1620
aI1640
aI1660
aI1680
aI1700
aI1720
aI1740
aI1760
aI1780
aI1800
aI1820
aI1840
aI1860
aI1880
aI1900
aI1920
aI1940
aI1960
aI1980
aI2000
aI2020
aI2040
aI2060
aI2080
aI2100
aI2120
aI2140
aI2160
aI2180
aI2200
aI2220
aI2240
aI2260
aI2280
aI2300
aI2320
aI2340
aI2360
aI2380
aI2400
aI2420
aI2440
aI2460
aI2480
aI2500
aI2520
aI2540
aI2560
aI2580
aI2600
aI2620
aI2640
aI2660
aI2680
aI2700
aI2720
aI2740
aI2760
aI2780
assS'0.4'
p148
(dp149
g4
(lp150
(F0.0005735011099993869
F0.00089558269111540743
tp151
a(F3.7290034541979239e-05
F0.00081424824937189125
tp152
a(F0.00026385620692290224
F0.0019923435260800785
tp153
a(F0.00053725042947372695
F0.0021349821271610617
tp154
a(F0.00084392650561387547
F0.0033509795335917411
tp155
a(F0.00093580287993494382
F0.0027404902351321992
tp156
a(F0.00027636242417266796
F0.0017111025569705345
tp157
a(F0.00023630210254792791
F0.0018196967194792637
tp158
a(F0.00010163784554020287
F0.00086208437909027875
tp159
a(F0.00032786234746616863
F0.00085138656379547448
tp160
a(F0.00020865953406368903
F0.00076733624383990267
tp161
a(F3.5032753843417756e-05
F0.0005455849978938575
tp162
a(F0.00013907266775185344
F0.0010301986263994379
tp163
a(F6.3978461416423424e-05
F0.0011564727654177064
tp164
a(F0.00015090989892275943
F0.0010633852576283527
tp165
a(F6.7164362472226695e-05
F0.001885934855199231
tp166
a(F0.00010686819003130101
F0.0016321326356060475
tp167
a(F0.00042840664352286444
F0.0012848740847399506
tp168
a(F0.00060034089923328635
F0.0022168877116555108
tp169
a(F0.00042369126415514428
F0.001832659604732246
tp170
a(F0.00046161372968949073
F0.0020222618013729984
tp171
a(F0.00018611801709024836
F0.0009900501888874052
tp172
a(F0.00038419745605671081
F0.001547856206301884
tp173
a(F0.00023937202386006828
F0.00054516106580779233
tp174
a(F0.00028377025369524106
F0.0014588799266196367
tp175
a(F0.00054378050709062622
F0.0016453189433409169
tp176
a(F0.00049357867482261852
F0.00068471617856394947
tp177
a(F0.00063028336286069259
F0.0016735219524747639
tp178
a(F0.00072928216319202363
F0.0021484128024348687
tp179
a(F0.00039840575154517777
F0.0017347225884495646
tp180
a(F0.00085470514648080392
F0.0026324096597336597
tp181
a(F0.00068007619291803566
F0.0020688152027158865
tp182
a(F0.0011354103397995378
F0.0025667505943622643
tp183
a(F0.00055298398813138569
F0.0022237263018716029
tp184
a(F0.00049334905441703741
F0.0018737101247868829
tp185
a(F0.00071669722790911397
F0.0022289613808245783
tp186
a(F0.00042123294102742494
F0.0021231831021163309
tp187
a(F0.00091354668673768874
F0.001534083205201431
tp188
a(F0.00018331545647543371
F0.0016715708411526573
tp189
a(F0.00026710417166026564
F0.0012921377688603821
tp190
a(F0.00026726399096380516
F0.0012585374444545566
tp191
a(F0.00076988319231781864
F0.0020532837457785842
tp192
a(F0.00094019808453856685
F0.0016088178104494834
tp193
a(F0.002127799899991234
F0.0029291886802831832
tp194
a(F0.0021674159940352506
F0.0028729604110660986
tp195
a(F0.0013265304251548499
F0.0016556561017260411
tp196
a(F0.0016815786211216988
F0.0020136784266572439
tp197
a(F0.0024835622006222739
F0.0027135020796531916
tp198
a(F0.0024432190908774305
F0.0035028063521090032
tp199
a(F0.0015685056344553264
F0.002799789345543723
tp200
a(F0.0020059708604095519
F0.0028102574362927992
tp201
a(F0.0089710635005274715
F0.0075376448055063132
tp202
a(F0.01760347743066205
F0.015129049405132869
tp203
a(F0.030841369435366747
F0.025909083440870423
tp204
a(F0.039298947015627368
F0.033904697465432586
tp205
a(F0.048728952846803737
F0.042175216120987742
tp206
a(F0.058205171235294277
F0.050465566221324483
tp207
a(F0.066298741558110108
F0.057435820925011843
tp208
a(F0.073354556445686475
F0.06358773247541083
tp209
a(F0.077674192012942414
F0.067343380979065226
tp210
a(F0.084750500141006463
F0.0736348166727743
tp211
a(F0.080899836327569544
F0.071947759306640657
tp212
a(F0.074745794477790381
F0.066112505050977377
tp213
a(F0.065196639061115017
F0.05894122564737711
tp214
a(F0.057690484061044822
F0.0515979370349001
tp215
a(F0.047949663628717193
F0.043301410358594479
tp216
a(F0.038818420343739404
F0.035229472955539694
tp217
a(F0.028678992203643183
F0.026251847414302795
tp218
a(F0.019541634759165288
F0.016962276172565668
tp219
a(F0.0082163082239357227
F0.0057818810363173181
tp220
a(F0.001659989394671546
F0.0029384361250899362
tp221
a(F0.001141631529163278
F0.0025265915084045657
tp222
a(F0.0017673570752201849
F0.0038644264037954734
tp223
a(F0.0010482906140272408
F0.0029424207040195105
tp224
a(F0.00066269616478419752
F0.0026240182539026295
tp225
a(F0.00031552023056417335
F0.0017214058942020766
tp226
a(F0.00057068941521993405
F0.0027824968861168546
tp227
a(F0.0003929834789337637
F0.001609011983721746
tp228
a(F0.00025065069527257849
F0.0017958510676701841
tp229
a(F0.00013594894605348457
F0.00078785938473207489
tp230
a(F1.2475090704176447e-05
F0.00078878733802305193
tp231
a(F0.00011930542799173851
F0.0018848089362410675
tp232
a(F5.6201045795156376e-05
F0.0012070047936084544
tp233
a(F2.9784316041156934e-05
F0.00077594923918506971
tp234
a(F0.00034888853720149368
F0.00096580066389476648
tp235
a(F0.00067486607509279969
F0.0020028345335754484
tp236
a(F0.00056977074938702535
F0.0021036281830913782
tp237
a(F0.00050361650610631498
F0.0021613337596634984
tp238
a(F0.0004012979948008269
F0.0027653559264101111
tp239
a(F0.00049990897587014757
F0.0027611183795376946
tp240
a(F0.00059712787709012539
F0.0033589944238476828
tp241
a(F0.00053660832531143496
F0.0040205577350912259
tp242
a(F0.00070540370945053853
F0.0041644264749028086
tp243
a(F0.00055506528190782389
F0.0023251985177941211
tp244
a(F0.00034424892812334566
F0.0017877861489033762
tp245
a(F0.00025200864528473164
F0.0013140502232027291
tp246
a(F0.00022493286409079778
F0.0013501645185899878
tp247
a(F0.00026993975865467236
F0.0013673877940437564
tp248
a(F0.00025235269871451242
F0.0011833150318687081
tp249
a(F0.000217847027680124
F0.00059791269625986501
tp250
a(F0.00029120419870997099
F0.00058942872204355594
tp251
a(F0.00075811418225580664
F0.0014336682440491439
tp252
a(F0.00054384776999260708
F0.0013168862277388759
tp253
a(F0.0012874401161307378
F0.001643921157317931
tp254
a(F0.0011189100577998221
F0.0015224880364165516
tp255
a(F0.00095649765504752463
F0.0017677265311770636
tp256
a(F0.0015972950731736879
F0.0024398183617796256
tp257
a(F0.0016292600433832193
F0.0027704480763800607
tp258
a(F0.0020017187815427953
F0.0027687218507512169
tp259
a(F0.0013286330418972253
F0.0020970600150527689
tp260
a(F0.0015224122370047465
F0.0023201399563756732
tp261
a(F0.0013179955239163779
F0.001966885226655341
tp262
a(F0.00061923538897631913
F0.0013586464761342783
tp263
a(F0.00040208887885837333
F0.0010824614979458198
tp264
a(F0.00082686179217886582
F0.0012525624815720438
tp265
a(F0.00036966933823855651
F0.0011520711119904548
tp266
a(F9.7805999530155112e-05
F0.001783003954250435
tp267
a(F3.7428968278569678e-05
F0.00071384803504700859
tp268
a(F3.3374077349174885e-05
F0.00052678916639650893
tp269
a(F0.00023069246522993726
F0.0018189115389556207
tp270
a(F0.00027125190191432808
F0.001205210626388255
tp271
a(F0.0002704041390289829
F0.0010338622318394285
tp272
a(F0.0022534062080182167
F0.0026590493659107606
tp273
a(F0.002075294687241153
F0.0026778767499549372
tp274
a(F0.0016349245185868656
F0.0025076534232623938
tp275
a(F0.0017095127795107457
F0.0024859995919905191
tp276
a(F0.0011613739526585183
F0.0021411138477590032
tp277
a(F0.0005983462568752429
F0.0012604494892060531
tp278
a(F0.0004907176039141703
F0.00077290131085482657
tp279
a(F0.0004030862606963517
F0.00095707669231737905
tp280
a(F4.6019133026460948e-05
F0.0012286152438215454
tp281
a(F1.7014994464138421e-06
F0.00064300283337952321
tp282
a(F0.00029914656050327414
F0.00139397508282443
tp283
a(F9.5075208257907468e-05
F0.00066722086862218855
tp284
a(F0.00045439020099414563
F0.0008648833660788609
tp285
a(F9.7954034759615248e-05
F0.00145026460587392
tp286
a(F0.0001134071923341402
F0.0010461658424092664
tp287
a(F0.00012814192330046041
F0.00088415316771552966
tp288
a(F3.3562960952568605e-06
F0.00092032446499923392
tp289
a(F0.00021223379043549748
F0.0014290316078053806
tp290
asg146
(lp291
I0
aI20
aI40
aI60
aI80
aI100
aI120
aI140
aI160
aI180
aI200
aI220
aI240
aI260
aI280
aI300
aI320
aI340
aI360
aI380
aI400
aI420
aI440
aI460
aI480
aI500
aI520
aI540
aI560
aI580
aI600
aI620
aI640
aI660
aI680
aI700
aI720
aI740
aI760
aI780
aI800
aI820
aI840
aI860
aI880
aI900
aI920
aI940
aI960
aI980
aI1000
aI1020
aI1040
aI1060
aI1080
aI1100
aI1120
aI1140
aI1160
aI1180
aI1200
aI1220
aI1240
aI1260
aI1280
aI1300
aI1320
aI1340
aI1360
aI1380
aI1400
aI1420
aI1440
aI1460
aI1480
aI1500
aI1520
aI1540
aI1560
aI1580
aI1600
aI1620
aI1640
aI1660
aI1680
aI1700
aI1720
aI1740
aI1760
aI1780
aI1800
aI1820
aI1840
aI1860
aI1880
aI1900
aI1920
aI1940
aI1960
aI1980
aI2000
aI2020
aI2040
aI2060
aI2080
aI2100
aI2120
aI2140
aI2160
aI2180
aI2200
aI2220
aI2240
aI2260
aI2280
aI2300
aI2320
aI2340
aI2360
aI2380
aI2400
aI2420
aI2440
aI2460
aI2480
aI2500
aI2520
aI2540
aI2560
aI2580
aI2600
aI2620
aI2640
aI2660
aI2680
aI2700
aI2720
aI2740
aI2760
aI2780
assS'0.6'
p292
(dp293
g4
(lp294
(F0.00011815740555296949
F0.00080823630899435337
tp295
a(F0.00026217192840887697
F0.00070686805260930714
tp296
a(F0.00011960133382330146
F0.00058466659024403677
tp297
a(F0.0005298058476890825
F0.0013562011701235754
tp298
a(F0.00012602548733252946
F0.00073467896166451538
tp299
a(F0.00014150440024293404
F0.0017941825026670407
tp300
a(F0.00011417570167669873
F0.0023470845336707852
tp301
a(F9.5555361607706658e-05
F0.001791720397068339
tp302
a(F0.00025691505883337136
F0.0023156715964185604
tp303
a(F0.0002957491174885047
F0.0016701851883896171
tp304
a(F0.00042028998819826791
F0.0011071678157969383
tp305
a(F0.00049313207660974055
F0.0017426455947667134
tp306
a(F0.00049219350544079266
F0.0010791103563507006
tp307
a(F0.00090875187747341615
F0.0017811242730977244
tp308
a(F0.00065741478743829365
F0.001102595963148966
tp309
a(F0.00058665020967405869
F0.0008505033256497492
tp310
a(F0.00033545122689424781
F0.0013719495519110363
tp311
a(F0.00035842037460052673
F0.0005728783555689253
tp312
a(F0.00060145854017853648
F0.001018681914158984
tp313
a(F0.00057103057408108577
F0.0011896662791775418
tp314
a(F0.0012242854954473664
F0.0015762486405204756
tp315
a(F0.002834659900748643
F0.003493229107120206
tp316
a(F0.0016832616478117399
F0.0025114984313142721
tp317
a(F0.0010156237969779838
F0.0017939561384625702
tp318
a(F0.00053804272913585572
F0.0016525442008195469
tp319
a(F0.00056576689992184721
F0.0022534864966286677
tp320
a(F0.00039997761544145749
F0.0017567745320732344
tp321
a(F0.00030029547556519065
F0.0015670845362434366
tp322
a(F0.00043710520928857705
F0.002480701953181774
tp323
a(F0.00037388505475941924
F0.0015290752562977438
tp324
a(F5.5000131910793251e-05
F0.0010156580448412627
tp325
a(F0.00033120846217123308
F0.0014785101806920854
tp326
a(F5.837282068796312e-05
F0.0019287826374884726
tp327
a(F0.00014351231950233533
F0.00052821321586151511
tp328
a(F7.1665190570997187e-05
F0.00047047079950232878
tp329
a(F2.7048536543591243e-05
F0.00045038533771545199
tp330
a(F0.00023428596255425493
F0.0017224481228283542
tp331
a(F0.00044379274123422345
F0.0015341056447870165
tp332
a(F0.0011511092196963436
F0.002200670964614267
tp333
a(F0.00070852470933844311
F0.0016174517323335668
tp334
a(F0.0009245856804345632
F0.0018105257645306641
tp335
a(F0.00036800800291115181
F0.0017730384835049804
tp336
a(F0.00015663171780869655
F0.0010956112526093003
tp337
a(F0.00044018206540346206
F0.0016669275617925796
tp338
a(F0.00081722940792834306
F0.001908967843846235
tp339
a(F0.0011388510511956308
F0.0022784421948479788
tp340
a(F0.0010646012033518441
F0.0024889753322339964
tp341
a(F0.00074349915123212047
F0.0021842071084337941
tp342
a(F0.00079686569168213768
F0.0025434122838467773
tp343
a(F0.0002036111055739127
F0.0015568895712674356
tp344
a(F0.00039828294513400385
F0.0021814480131405068
tp345
a(F0.0065024865709695651
F0.0029318835374502437
tp346
a(F0.017570456811392667
F0.012475853965953651
tp347
a(F0.02762791932020843
F0.021316711294707295
tp348
a(F0.036380457201176997
F0.028779682834395713
tp349
a(F0.046998738641807696
F0.038401360564778039
tp350
a(F0.054836027836000181
F0.044645904166391435
tp351
a(F0.063031044880911935
F0.05400579241376402
tp352
a(F0.067270576798897641
F0.058268121401679224
tp353
a(F0.076503668613419618
F0.064984521410940299
tp354
a(F0.085756089014706285
F0.06978357935059519
tp355
a(F0.085828917620831849
F0.074145475525717208
tp356
a(F0.077930094897714644
F0.068118437984422908
tp357
a(F0.072543605591403021
F0.064064955085948533
tp358
a(F0.065014615272409454
F0.057971639624280411
tp359
a(F0.05755900140720794
F0.051003608686943924
tp360
a(F0.044986264110001804
F0.038797583144696314
tp361
a(F0.036303826178728883
F0.030911711685737916
tp362
a(F0.026778505823425107
F0.021239951876581738
tp363
a(F0.013684812601194852
F0.010077802671878367
tp364
a(F0.00071275057100126781
F0.0027655456500874026
tp365
a(F0.0012692148117130807
F0.0029340317549299208
tp366
a(F0.00042832058540003427
F0.0017337341798279293
tp367
a(F0.00061250383490564627
F0.001077721055509611
tp368
a(F0.00054288213025243445
F0.0012595106410797814
tp369
a(F0.0008648906487860198
F0.0018719185107050607
tp370
a(F0.00087039188403721136
F0.002157048148047791
tp371
a(F0.00072681121379012184
F0.0030948661121007943
tp372
a(F0.0016715795922613366
F0.0049325497043125636
tp373
a(F0.001863634444651735
F0.0045592574171308452
tp374
a(F0.0022625388872442379
F0.0043812315503948731
tp375
a(F0.0010536475252477025
F0.0026594207363410476
tp376
a(F0.00051416253098146569
F0.0022348321531188214
tp377
a(F0.0010004679294017757
F0.0019224840696687169
tp378
a(F0.0015313886579046421
F0.0021433712421431972
tp379
a(F0.0013238497016104349
F0.0020131745099352121
tp380
a(F0.0016458088552806747
F0.0025118346194176484
tp381
a(F0.0009257184681884835
F0.0014256930729163646
tp382
a(F0.00071530527971417832
F0.0015291665069072458
tp383
a(F0.00043914766116896764
F0.00061841698647365439
tp384
a(F8.2956034233994461e-05
F0.00091264759152900497
tp385
a(F0.00027880101231775398
F0.00067793908336358623
tp386
a(F0.0002473958825520272
F0.0012442296832882852
tp387
a(F6.4655016089099938e-05
F0.00069539111941927163
tp388
a(F0.00034653468550458096
F0.0015364045832905557
tp389
a(F0.00026019434812936176
F0.00045152708880797932
tp390
a(F0.00013962171826882217
F0.00060389410104659037
tp391
a(F5.528533221864796e-05
F0.00061748463000179299
tp392
a(F0.0001827309070324655
F0.0011486080484408082
tp393
a(F0.00018563604917045751
F0.00056259530525365432
tp394
a(F0.00019255120168249398
F0.00094440513684615631
tp395
a(F0.00014074551787938072
F0.0010774154057156761
tp396
a(F0.00029105969744239873
F0.00095092639964102681
tp397
a(F0.00019027601124298481
F0.0017216401495624477
tp398
a(F0.00062892608777835243
F0.0024409910550601548
tp399
a(F0.00032274985709187425
F0.0028731414623846961
tp400
a(F0.00053371977457554627
F0.0037874848919633428
tp401
a(F0.00015276055327636531
F0.0051068330659010475
tp402
a(F0.00028748721976350287
F0.0054115380020508105
tp403
a(F4.9026853216370576e-05
F0.0028104145743210775
tp404
a(F6.8928469784551756e-05
F0.0025172548617087599
tp405
a(F2.7301839685449944e-05
F0.0019074413830448306
tp406
a(F0.00015589278607927625
F0.0017956596954422969
tp407
a(F0.00017332880116981836
F0.0013354330988968985
tp408
a(F0.00042161113237327587
F0.0019108437902117734
tp409
a(F0.00073329491287528578
F0.002435118570454347
tp410
a(F0.0016978743242028463
F0.0034349393060779465
tp411
a(F0.00040583128508052684
F0.00099377576727858736
tp412
a(F0.00046380767043324635
F0.0011377370643352947
tp413
a(F0.00069334381282156637
F0.001401568833276577
tp414
a(F0.00054625102532441247
F0.0010224914129242316
tp415
a(F0.0003012343363714854
F0.0008188726294457117
tp416
a(F0.00021672096860215822
F0.00079744940241850497
tp417
a(F0.00010741008601245199
F0.0015300274512497387
tp418
a(F2.2465535221892789e-05
F0.00094247277535996913
tp419
a(F4.2348958227498863e-05
F0.0012907649482789367
tp420
a(F0.00012859272858779908
F0.00086989719256146678
tp421
a(F3.9926347900456297e-05
F0.0011798733388238393
tp422
a(F2.7401441933694315e-05
F0.00058314973139902472
tp423
a(F9.9950392933007871e-05
F0.0012684770334969327
tp424
a(F0.00013257807533291303
F0.0012701614187719155
tp425
a(F1.8764912749189271e-05
F0.00038747447125953569
tp426
a(F0.00047204821351564362
F0.0010588951618869084
tp427
a(F0.00090783603601017442
F0.0019611583590769957
tp428
a(F0.0012266606614069094
F0.0019241713966807821
tp429
a(F0.001463873235117711
F0.0024469665244003726
tp430
a(F0.0014188278053151246
F0.0025679292651128068
tp431
a(F0.0017087896728300023
F0.0030511111076084508
tp432
a(F0.001577053666572948
F0.0033662418807214804
tp433
a(F0.0017266565978844295
F0.0045874587721321108
tp434
asg146
(lp435
I0
aI20
aI40
aI60
aI80
aI100
aI120
aI140
aI160
aI180
aI200
aI220
aI240
aI260
aI280
aI300
aI320
aI340
aI360
aI380
aI400
aI420
aI440
aI460
aI480
aI500
aI520
aI540
aI560
aI580
aI600
aI620
aI640
aI660
aI680
aI700
aI720
aI740
aI760
aI780
aI800
aI820
aI840
aI860
aI880
aI900
aI920
aI940
aI960
aI980
aI1000
aI1020
aI1040
aI1060
aI1080
aI1100
aI1120
aI1140
aI1160
aI1180
aI1200
aI1220
aI1240
aI1260
aI1280
aI1300
aI1320
aI1340
aI1360
aI1380
aI1400
aI1420
aI1440
aI1460
aI1480
aI1500
aI1520
aI1540
aI1560
aI1580
aI1600
aI1620
aI1640
aI1660
aI1680
aI1700
aI1720
aI1740
aI1760
aI1780
aI1800
aI1820
aI1840
aI1860
aI1880
aI1900
aI1920
aI1940
aI1960
aI1980
aI2000
aI2020
aI2040
aI2060
aI2080
aI2100
aI2120
aI2140
aI2160
aI2180
aI2200
aI2220
aI2240
aI2260
aI2280
aI2300
aI2320
aI2340
aI2360
aI2380
aI2400
aI2420
aI2440
aI2460
aI2480
aI2500
aI2520
aI2540
aI2560
aI2580
aI2600
aI2620
aI2640
aI2660
aI2680
aI2700
aI2720
aI2740
aI2760
aI2780
ass.